; Function Attrs: mustprogress uwtable
define void @_ZN3zmq8object_t16send_conn_failedEPNS_14session_base_tE(ptr noundef nonnull readonly align 8 captures(none) dereferenceable(20) %0, ptr noundef %1) local_unnamed_addr #6 align 2 {
  %3 = alloca %"struct.zmq::command_t", align 64
  call void @llvm.lifetime.start.p0(i64 64, ptr nonnull %3) #11
  store ptr %1, ptr %3, align 64, !tbaa !20
  %4 = getelementptr inbounds nuw i8, ptr %3, i64 8
  store i32 18, ptr %4, align 8, !tbaa !13
  %5 = getelementptr inbounds nuw i8, ptr %0, i64 8
  %6 = load ptr, ptr %5, align 8, !tbaa !6
  %7 = getelementptr inbounds nuw i8, ptr %1, i64 16
  %8 = load i32, ptr %7, align 8, !tbaa !12
  call void @_ZN3zmq5ctx_t12send_commandEjRKNS_9command_tE(ptr noundef nonnull align 8 dereferenceable(648) %6, i32 noundef %8, ptr noundef nonnull align 64 dereferenceable(64) %3)
  call void @llvm.lifetime.end.p0(i64 64, ptr nonnull %3) #11
  ret void
}